; Function Attrs: nounwind uwtable
define dso_local i32 @onig_get_args_num_by_callout_args(ptr noundef readonly captures(none) %0) local_unnamed_addr #4 {
  %2 = getelementptr inbounds nuw i8, ptr %0, i64 8
  %3 = load i32, ptr %2, align 8, !tbaa !52
  %4 = getelementptr inbounds nuw i8, ptr %0, i64 16
  %5 = load ptr, ptr %4, align 8, !tbaa !156
  %6 = tail call ptr @onig_reg_callout_list_at(ptr noundef %5, i32 noundef %3) #30
  %7 = icmp eq ptr %6, null
  br i1 %7, label %15, label %8

8:                                                ; preds = %1
  %9 = getelementptr inbounds nuw i8, ptr %6, i64 4
  %10 = load i32, ptr %9, align 4, !tbaa !208
  %11 = icmp eq i32 %10, 1
  br i1 %11, label %12, label %15

12:                                               ; preds = %8
  %13 = getelementptr inbounds nuw i8, ptr %6, i64 56
  %14 = load i32, ptr %13, align 8, !tbaa !56
  br label %15

15:                                               ; preds = %8, %1, %12
  %.0 = phi i32 [ %14, %12 ], [ -30, %1 ], [ -30, %8 ]
  ret i32 %.0
}